; Function Attrs: nounwind uwtable
define range(i32 -1, 1) i32 @H5Pclose(i64 noundef %0) local_unnamed_addr #0 {
  %2 = load i8, ptr @H5_libinit_g, align 1
  %3 = trunc i8 %2 to i1
  %4 = load i8, ptr @H5_libterm_g, align 1
  %5 = trunc i8 %4 to i1
  %6 = select i1 %3, i1 true, i1 %5
  br i1 %6, label %14, label %7

7:                                                ; preds = %1
  %8 = tail call i32 @H5_init_library() #2
  %9 = icmp slt i32 %8, 0
  br i1 %9, label %10, label %14

10:                                               ; preds = %7
  %11 = load i64, ptr @H5E_FUNC_g, align 8
  %12 = load i64, ptr @H5E_CANTINIT_g, align 8
  %13 = tail call i32 (ptr, ptr, i32, i64, i64, ptr, ...) @H5E_printf_stack(ptr noundef nonnull @.str, ptr noundef nonnull @__func__.H5Pclose, i32 noundef 1456, i64 noundef %11, i64 noundef %12, ptr noundef nonnull @.str.1) #2
  br label %.thread22

14:                                               ; preds = %7, %1
  %15 = tail call i32 @H5CX_push() #2
  %16 = icmp slt i32 %15, 0
  br i1 %16, label %17, label %21

17:                                               ; preds = %14
  %18 = load i64, ptr @H5E_FUNC_g, align 8
  %19 = load i64, ptr @H5E_CANTSET_g, align 8
  %20 = tail call i32 (ptr, ptr, i32, i64, i64, ptr, ...) @H5E_printf_stack(ptr noundef nonnull @.str, ptr noundef nonnull @__func__.H5Pclose, i32 noundef 1456, i64 noundef %18, i64 noundef %19, ptr noundef nonnull @.str.2) #2
  br label %.thread22

21:                                               ; preds = %14
  %22 = tail call i32 @H5E_clear_stack() #2
  %.not = icmp eq i64 %0, 0
  br i1 %.not, label %37, label %23

23:                                               ; preds = %21
  %24 = tail call i32 @H5I_get_type(i64 noundef %0) #2
  %.not13 = icmp eq i32 %24, 11
  br i1 %.not13, label %29, label %25

25:                                               ; preds = %23
  %26 = load i64, ptr @H5E_ARGS_g, align 8
  %27 = load i64, ptr @H5E_BADTYPE_g, align 8
  %28 = tail call i32 (ptr, ptr, i32, i64, i64, ptr, ...) @H5E_printf_stack(ptr noundef nonnull @.str, ptr noundef nonnull @__func__.H5Pclose, i32 noundef 1462, i64 noundef %26, i64 noundef %27, ptr noundef nonnull @.str.18) #2
  br label %.thread28

29:                                               ; preds = %23
  %30 = tail call i32 @H5I_dec_app_ref(i64 noundef %0) #2
  %31 = icmp slt i32 %30, 0
  br i1 %31, label %32, label %37

32:                                               ; preds = %29
  %33 = load i64, ptr @H5E_PLIST_g, align 8
  %34 = load i64, ptr @H5E_CANTFREE_g, align 8
  %35 = tail call i32 (ptr, ptr, i32, i64, i64, ptr, ...) @H5E_printf_stack(ptr noundef nonnull @.str, ptr noundef nonnull @__func__.H5Pclose, i32 noundef 1466, i64 noundef %33, i64 noundef %34, ptr noundef nonnull @.str.52) #2
  br label %.thread28

.thread28:                                        ; preds = %32, %25
  %36 = tail call i32 @H5CX_pop(i1 noundef zeroext true) #2
  br label %.thread22

37:                                               ; preds = %21, %29
  %38 = tail call i32 @H5CX_pop(i1 noundef zeroext true) #2
  br label %40

.thread22:                                        ; preds = %17, %10, %.thread28
  %39 = tail call i32 @H5E_dump_api_stack() #2
  br label %40

40:                                               ; preds = %37, %.thread22
  %.0111725 = phi i32 [ -1, %.thread22 ], [ 0, %37 ]
  ret i32 %.0111725
}